; Function Attrs: inlinehint nounwind uwtable
define internal fastcc range(i32 -32, 1) i32 @pmix_bfrops_base_tma_copy_geometry(ptr noundef writeonly captures(none) %0, ptr noundef readonly captures(none) %1) unnamed_addr #8 {
  %calloc.i = tail call dereferenceable_or_null(40) ptr @calloc(i64 1, i64 40)
  %3 = icmp eq ptr %calloc.i, null
  br i1 %3, label %42, label %4, !prof !116

4:                                                ; preds = %2
  %5 = load i64, ptr %1, align 8, !tbaa !237
  store i64 %5, ptr %calloc.i, align 8, !tbaa !237
  %6 = getelementptr inbounds nuw i8, ptr %1, i64 8
  %7 = load ptr, ptr %6, align 8, !tbaa !77
  %.not = icmp eq ptr %7, null
  br i1 %.not, label %11, label %8

8:                                                ; preds = %4
  %9 = tail call noalias ptr @strdup(ptr noundef nonnull readonly %7) #24
  %10 = getelementptr inbounds nuw i8, ptr %calloc.i, i64 8
  store ptr %9, ptr %10, align 8, !tbaa !77
  br label %11

11:                                               ; preds = %8, %4
  %12 = getelementptr inbounds nuw i8, ptr %1, i64 16
  %13 = load ptr, ptr %12, align 8, !tbaa !80
  %.not45 = icmp eq ptr %13, null
  br i1 %.not45, label %17, label %14

14:                                               ; preds = %11
  %15 = tail call noalias ptr @strdup(ptr noundef nonnull readonly %13) #24
  %16 = getelementptr inbounds nuw i8, ptr %calloc.i, i64 16
  store ptr %15, ptr %16, align 8, !tbaa !80
  br label %17

17:                                               ; preds = %14, %11
  %18 = getelementptr inbounds nuw i8, ptr %1, i64 24
  %19 = load ptr, ptr %18, align 8, !tbaa !81
  %.not46 = icmp eq ptr %19, null
  br i1 %.not46, label %.loopexit, label %20

20:                                               ; preds = %17
  %21 = getelementptr inbounds nuw i8, ptr %1, i64 32
  %22 = load i64, ptr %21, align 8, !tbaa !82
  %23 = getelementptr inbounds nuw i8, ptr %calloc.i, i64 32
  store i64 %22, ptr %23, align 8, !tbaa !82
  %24 = tail call noalias noundef ptr @calloc(i64 noundef %22, i64 noundef 24) #31
  %25 = getelementptr inbounds nuw i8, ptr %calloc.i, i64 24
  store ptr %24, ptr %25, align 8, !tbaa !81
  %.not4812.not = icmp eq i64 %22, 0
  br i1 %.not4812.not, label %.loopexit, label %.lr.ph

.lr.ph:                                           ; preds = %20, %40
  %.03413 = phi i64 [ %41, %40 ], [ 0, %20 ]
  %26 = getelementptr inbounds nuw %struct.pmix_coord, ptr %24, i64 %.03413
  %27 = getelementptr inbounds nuw %struct.pmix_coord, ptr %19, i64 %.03413
  %28 = load i8, ptr %27, align 8, !tbaa !71
  store i8 %28, ptr %26, align 8, !tbaa !71
  %29 = getelementptr inbounds nuw i8, ptr %27, i64 16
  %30 = load i64, ptr %29, align 8, !tbaa !158
  %31 = getelementptr inbounds nuw i8, ptr %26, i64 16
  store i64 %30, ptr %31, align 8, !tbaa !158
  %.not.i = icmp eq i64 %30, 0
  br i1 %.not.i, label %40, label %32

32:                                               ; preds = %.lr.ph
  %33 = shl i64 %30, 2
  %34 = tail call noalias noundef ptr @malloc(i64 noundef %33) #25
  %35 = getelementptr inbounds nuw i8, ptr %26, i64 8
  store ptr %34, ptr %35, align 8, !tbaa !74
  %36 = icmp eq ptr %34, null
  br i1 %36, label %.thread9, label %37, !prof !116

37:                                               ; preds = %32
  %38 = getelementptr inbounds nuw i8, ptr %27, i64 8
  %39 = load ptr, ptr %38, align 8, !tbaa !74
  tail call void @llvm.memcpy.p0.p0.i64(ptr nonnull align 4 %34, ptr align 4 %39, i64 %33, i1 false)
  br label %40

.thread9:                                         ; preds = %32
  tail call void @PMIx_Geometry_free(ptr noundef nonnull %calloc.i, i64 noundef 1) #24
  br label %42

40:                                               ; preds = %37, %.lr.ph
  %41 = add nuw i64 %.03413, 1
  %exitcond.not = icmp eq i64 %41, %22
  br i1 %exitcond.not, label %.loopexit, label %.lr.ph, !llvm.loop !284

.loopexit:                                        ; preds = %40, %20, %17
  store ptr %calloc.i, ptr %0, align 8, !tbaa !285
  br label %42

42:                                               ; preds = %.thread9, %2, %.loopexit
  %.0 = phi i32 [ 0, %.loopexit ], [ -32, %2 ], [ -32, %.thread9 ]
  ret i32 %.0
}